target datalayout = "e-m:e-p270:32:32-p271:32:32-p272:64:64-i64:64-i128:128-f80:128-n8:16:32:64-S128"
target triple = "x86_64-pc-linux-gnu"

%struct.gmx_ana_pos_t = type <{ ptr, ptr, ptr, %struct.gmx_ana_indexmap_t, i32, [4 x i8] }>
%struct.gmx_ana_indexmap_t = type { i32, ptr, ptr, %struct.t_blocka, ptr, %struct.t_blocka, i8 }
%struct.t_blocka = type { i32, ptr, i32, ptr, i32, i32 }

; Function Attrs: mustprogress nounwind uwtable
define linkonce_odr noundef float @_Zli5_reale(x86_fp80 noundef %0) #2 comdat {
  %2 = alloca x86_fp80, align 16
  store x86_fp80 %0, ptr %2, align 16
  %3 = load x86_fp80, ptr %2, align 16
  %4 = fptrunc x86_fp80 %3 to float
  ret float %4
}

; Function Attrs: mustprogress uwtable
define internal void @_ZL10clear_rvecPf(ptr noundef %0) #0 {
  %2 = alloca ptr, align 8
  store ptr %0, ptr %2, align 8
  %3 = call noundef float @_Zli5_reale(x86_fp80 noundef 0xK00000000000000000000)
  %4 = load ptr, ptr %2, align 8
  %5 = getelementptr inbounds float, ptr %4, i64 0
  store float %3, ptr %5, align 4
  %6 = call noundef float @_Zli5_reale(x86_fp80 noundef 0xK00000000000000000000)
  %7 = load ptr, ptr %2, align 8
  %8 = getelementptr inbounds float, ptr %7, i64 1
  store float %6, ptr %8, align 4
  %9 = call noundef float @_Zli5_reale(x86_fp80 noundef 0xK00000000000000000000)
  %10 = load ptr, ptr %2, align 8
  %11 = getelementptr inbounds float, ptr %10, i64 2
  store float %9, ptr %11, align 4
  ret void
}

; Function Attrs: mustprogress nounwind uwtable
define internal void @_ZL9copy_rvecPKfPf(ptr noundef %0, ptr noundef %1) #2 {
  %3 = alloca ptr, align 8
  %4 = alloca ptr, align 8
  store ptr %0, ptr %3, align 8
  store ptr %1, ptr %4, align 8
  %5 = load ptr, ptr %3, align 8
  %6 = getelementptr inbounds float, ptr %5, i64 0
  %7 = load float, ptr %6, align 4
  %8 = load ptr, ptr %4, align 8
  %9 = getelementptr inbounds float, ptr %8, i64 0
  store float %7, ptr %9, align 4
  %10 = load ptr, ptr %3, align 8
  %11 = getelementptr inbounds float, ptr %10, i64 1
  %12 = load float, ptr %11, align 4
  %13 = load ptr, ptr %4, align 8
  %14 = getelementptr inbounds float, ptr %13, i64 1
  store float %12, ptr %14, align 4
  %15 = load ptr, ptr %3, align 8
  %16 = getelementptr inbounds float, ptr %15, i64 2
  %17 = load float, ptr %16, align 4
  %18 = load ptr, ptr %4, align 8
  %19 = getelementptr inbounds float, ptr %18, i64 2
  store float %17, ptr %19, align 4
  ret void
}

; Function Attrs: mustprogress nounwind uwtable
define linkonce_odr noundef i32 @_ZNK13gmx_ana_pos_t5countEv(ptr noundef nonnull align 8 dereferenceable(148) %0) #2 comdat align 2 {
  %2 = alloca ptr, align 8
  store ptr %0, ptr %2, align 8
  %3 = load ptr, ptr %2, align 8
  %4 = getelementptr inbounds %struct.gmx_ana_pos_t, ptr %3, i32 0, i32 3
  %5 = getelementptr inbounds %struct.gmx_ana_indexmap_t, ptr %4, i32 0, i32 3
  %6 = getelementptr inbounds %struct.t_blocka, ptr %5, i32 0, i32 0
  %7 = load i32, ptr %6, align 8
  ret i32 %7
}

; Function Attrs: mustprogress uwtable
define void @_Z18gmx_ana_pos_appendP13gmx_ana_pos_tS0_ii(ptr noundef %0, ptr noundef %1, i32 noundef %2, i32 noundef %3) #0 {
  %5 = alloca ptr, align 8
  %6 = alloca ptr, align 8
  %7 = alloca i32, align 4
  %8 = alloca i32, align 4
  %9 = alloca i32, align 4
  %10 = alloca i32, align 4
  store ptr %0, ptr %5, align 8
  store ptr %1, ptr %6, align 8
  store i32 %2, ptr %7, align 4
  store i32 %3, ptr %8, align 4
  %11 = load ptr, ptr %6, align 8
  %12 = getelementptr inbounds %struct.gmx_ana_pos_t, ptr %11, i32 0, i32 3
  %13 = getelementptr inbounds %struct.gmx_ana_indexmap_t, ptr %12, i32 0, i32 3
  %14 = getelementptr inbounds %struct.t_blocka, ptr %13, i32 0, i32 1
  %15 = load ptr, ptr %14, align 8
  %16 = load i32, ptr %7, align 4
  %17 = sext i32 %16 to i64
  %18 = getelementptr inbounds i32, ptr %15, i64 %17
  %19 = load i32, ptr %18, align 4
  store i32 %19, ptr %9, align 4
  br label %20

20:                                               ; preds = %56, %4
  %21 = load i32, ptr %9, align 4
  %22 = load ptr, ptr %6, align 8
  %23 = getelementptr inbounds %struct.gmx_ana_pos_t, ptr %22, i32 0, i32 3
  %24 = getelementptr inbounds %struct.gmx_ana_indexmap_t, ptr %23, i32 0, i32 3
  %25 = getelementptr inbounds %struct.t_blocka, ptr %24, i32 0, i32 1
  %26 = load ptr, ptr %25, align 8
  %27 = load i32, ptr %7, align 4
  %28 = add nsw i32 %27, 1
  %29 = sext i32 %28 to i64
  %30 = getelementptr inbounds i32, ptr %26, i64 %29
  %31 = load i32, ptr %30, align 4
  %32 = icmp slt i32 %21, %31
  br i1 %32, label %33, label %59

33:                                               ; preds = %20
  %34 = load ptr, ptr %6, align 8
  %35 = getelementptr inbounds %struct.gmx_ana_pos_t, ptr %34, i32 0, i32 3
  %36 = getelementptr inbounds %struct.gmx_ana_indexmap_t, ptr %35, i32 0, i32 3
  %37 = getelementptr inbounds %struct.t_blocka, ptr %36, i32 0, i32 3
  %38 = load ptr, ptr %37, align 8
  %39 = load i32, ptr %9, align 4
  %40 = sext i32 %39 to i64
  %41 = getelementptr inbounds i32, ptr %38, i64 %40
  %42 = load i32, ptr %41, align 4
  %43 = load ptr, ptr %5, align 8
  %44 = getelementptr inbounds %struct.gmx_ana_pos_t, ptr %43, i32 0, i32 3
  %45 = getelementptr inbounds %struct.gmx_ana_indexmap_t, ptr %44, i32 0, i32 3
  %46 = getelementptr inbounds %struct.t_blocka, ptr %45, i32 0, i32 3
  %47 = load ptr, ptr %46, align 8
  %48 = load ptr, ptr %5, align 8
  %49 = getelementptr inbounds %struct.gmx_ana_pos_t, ptr %48, i32 0, i32 3
  %50 = getelementptr inbounds %struct.gmx_ana_indexmap_t, ptr %49, i32 0, i32 3
  %51 = getelementptr inbounds %struct.t_blocka, ptr %50, i32 0, i32 2
  %52 = load i32, ptr %51, align 8
  %53 = add nsw i32 %52, 1
  store i32 %53, ptr %51, align 8
  %54 = sext i32 %52 to i64
  %55 = getelementptr inbounds i32, ptr %47, i64 %54
  store i32 %42, ptr %55, align 4
  br label %56

56:                                               ; preds = %33
  %57 = load i32, ptr %9, align 4
  %58 = add nsw i32 %57, 1
  store i32 %58, ptr %9, align 4
  br label %20, !llvm.loop !7

59:                                               ; preds = %20
  %60 = load ptr, ptr %5, align 8
  %61 = call noundef i32 @_ZNK13gmx_ana_pos_t5countEv(ptr noundef nonnull align 8 dereferenceable(148) %60)
  store i32 %61, ptr %10, align 4
  %62 = load ptr, ptr %5, align 8
  %63 = getelementptr inbounds %struct.gmx_ana_pos_t, ptr %62, i32 0, i32 1
  %64 = load ptr, ptr %63, align 8
  %65 = icmp ne ptr %64, null
  br i1 %65, label %66, label %95

66:                                               ; preds = %59
  %67 = load ptr, ptr %6, align 8
  %68 = getelementptr inbounds %struct.gmx_ana_pos_t, ptr %67, i32 0, i32 1
  %69 = load ptr, ptr %68, align 8
  %70 = icmp ne ptr %69, null
  br i1 %70, label %71, label %86

71:                                               ; preds = %66
  %72 = load ptr, ptr %6, align 8
  %73 = getelementptr inbounds %struct.gmx_ana_pos_t, ptr %72, i32 0, i32 1
  %74 = load ptr, ptr %73, align 8
  %75 = load i32, ptr %7, align 4
  %76 = sext i32 %75 to i64
  %77 = getelementptr inbounds [3 x float], ptr %74, i64 %76
  %78 = getelementptr inbounds [3 x float], ptr %77, i64 0, i64 0
  %79 = load ptr, ptr %5, align 8
  %80 = getelementptr inbounds %struct.gmx_ana_pos_t, ptr %79, i32 0, i32 1
  %81 = load ptr, ptr %80, align 8
  %82 = load i32, ptr %10, align 4
  %83 = sext i32 %82 to i64
  %84 = getelementptr inbounds [3 x float], ptr %81, i64 %83
  %85 = getelementptr inbounds [3 x float], ptr %84, i64 0, i64 0
  call void @_ZL9copy_rvecPKfPf(ptr noundef %78, ptr noundef %85)
  br label %94

86:                                               ; preds = %66
  %87 = load ptr, ptr %5, align 8
  %88 = getelementptr inbounds %struct.gmx_ana_pos_t, ptr %87, i32 0, i32 1
  %89 = load ptr, ptr %88, align 8
  %90 = load i32, ptr %10, align 4
  %91 = sext i32 %90 to i64
  %92 = getelementptr inbounds [3 x float], ptr %89, i64 %91
  %93 = getelementptr inbounds [3 x float], ptr %92, i64 0, i64 0
  call void @_ZL10clear_rvecPf(ptr noundef %93)
  br label %94

94:                                               ; preds = %86, %71
  br label %95

95:                                               ; preds = %94, %59
  %96 = load ptr, ptr %5, align 8
  %97 = getelementptr inbounds %struct.gmx_ana_pos_t, ptr %96, i32 0, i32 2
  %98 = load ptr, ptr %97, align 8
  %99 = icmp ne ptr %98, null
  br i1 %99, label %100, label %129

100:                                              ; preds = %95
  %101 = load ptr, ptr %6, align 8
  %102 = getelementptr inbounds %struct.gmx_ana_pos_t, ptr %101, i32 0, i32 2
  %103 = load ptr, ptr %102, align 8
  %104 = icmp ne ptr %103, null
  br i1 %104, label %105, label %120

105:                                              ; preds = %100
  %106 = load ptr, ptr %6, align 8
  %107 = getelementptr inbounds %struct.gmx_ana_pos_t, ptr %106, i32 0, i32 2
  %108 = load ptr, ptr %107, align 8
  %109 = load i32, ptr %7, align 4
  %110 = sext i32 %109 to i64
  %111 = getelementptr inbounds [3 x float], ptr %108, i64 %110
  %112 = getelementptr inbounds [3 x float], ptr %111, i64 0, i64 0
  %113 = load ptr, ptr %5, align 8
  %114 = getelementptr inbounds %struct.gmx_ana_pos_t, ptr %113, i32 0, i32 2
  %115 = load ptr, ptr %114, align 8
  %116 = load i32, ptr %10, align 4
  %117 = sext i32 %116 to i64
  %118 = getelementptr inbounds [3 x float], ptr %115, i64 %117
  %119 = getelementptr inbounds [3 x float], ptr %118, i64 0, i64 0
  call void @_ZL9copy_rvecPKfPf(ptr noundef %112, ptr noundef %119)
  br label %128

120:                                              ; preds = %100
  %121 = load ptr, ptr %5, align 8
  %122 = getelementptr inbounds %struct.gmx_ana_pos_t, ptr %121, i32 0, i32 2
  %123 = load ptr, ptr %122, align 8
  %124 = load i32, ptr %10, align 4
  %125 = sext i32 %124 to i64
  %126 = getelementptr inbounds [3 x float], ptr %123, i64 %125
  %127 = getelementptr inbounds [3 x float], ptr %126, i64 0, i64 0
  call void @_ZL10clear_rvecPf(ptr noundef %127)
  br label %128

128:                                              ; preds = %120, %105
  br label %129

129:                                              ; preds = %128, %95
  %130 = load ptr, ptr %6, align 8
  %131 = getelementptr inbounds %struct.gmx_ana_pos_t, ptr %130, i32 0, i32 0
  %132 = load ptr, ptr %131, align 8
  %133 = load i32, ptr %7, align 4
  %134 = sext i32 %133 to i64
  %135 = getelementptr inbounds [3 x float], ptr %132, i64 %134
  %136 = getelementptr inbounds [3 x float], ptr %135, i64 0, i64 0
  %137 = load ptr, ptr %5, align 8
  %138 = getelementptr inbounds %struct.gmx_ana_pos_t, ptr %137, i32 0, i32 0
  %139 = load ptr, ptr %138, align 8
  %140 = load i32, ptr %10, align 4
  %141 = sext i32 %140 to i64
  %142 = getelementptr inbounds [3 x float], ptr %139, i64 %141
  %143 = getelementptr inbounds [3 x float], ptr %142, i64 0, i64 0
  call void @_ZL9copy_rvecPKfPf(ptr noundef %136, ptr noundef %143)
  %144 = load i32, ptr %8, align 4
  %145 = icmp slt i32 %144, 0
  br i1 %145, label %146, label %157

146:                                              ; preds = %129
  %147 = load ptr, ptr %5, align 8
  %148 = getelementptr inbounds %struct.gmx_ana_pos_t, ptr %147, i32 0, i32 3
  %149 = getelementptr inbounds %struct.gmx_ana_indexmap_t, ptr %148, i32 0, i32 1
  %150 = load ptr, ptr %149, align 8
  %151 = load i32, ptr %10, align 4
  %152 = sext i32 %151 to i64
  %153 = getelementptr inbounds i32, ptr %150, i64 %152
  store i32 -1, ptr %153, align 4
  %154 = load ptr, ptr %5, align 8
  %155 = getelementptr inbounds %struct.gmx_ana_pos_t, ptr %154, i32 0, i32 3
  %156 = getelementptr inbounds %struct.gmx_ana_indexmap_t, ptr %155, i32 0, i32 6
  store i8 0, ptr %156, align 8
  br label %189

157:                                              ; preds = %129
  %158 = load i32, ptr %8, align 4
  %159 = load i32, ptr %10, align 4
  %160 = icmp ne i32 %158, %159
  br i1 %160, label %161, label %165

161:                                              ; preds = %157
  %162 = load ptr, ptr %5, align 8
  %163 = getelementptr inbounds %struct.gmx_ana_pos_t, ptr %162, i32 0, i32 3
  %164 = getelementptr inbounds %struct.gmx_ana_indexmap_t, ptr %163, i32 0, i32 6
  store i8 0, ptr %164, align 8
  br label %165

165:                                              ; preds = %161, %157
  %166 = load i32, ptr %8, align 4
  %167 = load ptr, ptr %5, align 8
  %168 = getelementptr inbounds %struct.gmx_ana_pos_t, ptr %167, i32 0, i32 3
  %169 = getelementptr inbounds %struct.gmx_ana_indexmap_t, ptr %168, i32 0, i32 1
  %170 = load ptr, ptr %169, align 8
  %171 = load i32, ptr %10, align 4
  %172 = sext i32 %171 to i64
  %173 = getelementptr inbounds i32, ptr %170, i64 %172
  store i32 %166, ptr %173, align 4
  %174 = load ptr, ptr %5, align 8
  %175 = getelementptr inbounds %struct.gmx_ana_pos_t, ptr %174, i32 0, i32 3
  %176 = getelementptr inbounds %struct.gmx_ana_indexmap_t, ptr %175, i32 0, i32 4
  %177 = load ptr, ptr %176, align 8
  %178 = load i32, ptr %8, align 4
  %179 = sext i32 %178 to i64
  %180 = getelementptr inbounds i32, ptr %177, i64 %179
  %181 = load i32, ptr %180, align 4
  %182 = load ptr, ptr %5, align 8
  %183 = getelementptr inbounds %struct.gmx_ana_pos_t, ptr %182, i32 0, i32 3
  %184 = getelementptr inbounds %struct.gmx_ana_indexmap_t, ptr %183, i32 0, i32 2
  %185 = load ptr, ptr %184, align 8
  %186 = load i32, ptr %10, align 4
  %187 = sext i32 %186 to i64
  %188 = getelementptr inbounds i32, ptr %185, i64 %187
  store i32 %181, ptr %188, align 4
  br label %189

189:                                              ; preds = %165, %146
  %190 = load ptr, ptr %5, align 8
  %191 = getelementptr inbounds %struct.gmx_ana_pos_t, ptr %190, i32 0, i32 3
  %192 = getelementptr inbounds %struct.gmx_ana_indexmap_t, ptr %191, i32 0, i32 3
  %193 = getelementptr inbounds %struct.t_blocka, ptr %192, i32 0, i32 2
  %194 = load i32, ptr %193, align 8
  %195 = load ptr, ptr %5, align 8
  %196 = getelementptr inbounds %struct.gmx_ana_pos_t, ptr %195, i32 0, i32 3
  %197 = getelementptr inbounds %struct.gmx_ana_indexmap_t, ptr %196, i32 0, i32 3
  %198 = getelementptr inbounds %struct.t_blocka, ptr %197, i32 0, i32 1
  %199 = load ptr, ptr %198, align 8
  %200 = load i32, ptr %10, align 4
  %201 = add nsw i32 %200, 1
  %202 = sext i32 %201 to i64
  %203 = getelementptr inbounds i32, ptr %199, i64 %202
  store i32 %194, ptr %203, align 4
  %204 = load ptr, ptr %5, align 8
  %205 = getelementptr inbounds %struct.gmx_ana_pos_t, ptr %204, i32 0, i32 3
  %206 = getelementptr inbounds %struct.gmx_ana_indexmap_t, ptr %205, i32 0, i32 3
  %207 = getelementptr inbounds %struct.t_blocka, ptr %206, i32 0, i32 0
  %208 = load i32, ptr %207, align 8
  %209 = add nsw i32 %208, 1
  store i32 %209, ptr %207, align 8
  ret void
}