; Function Attrs: mustprogress nofree norecurse nosync nounwind memory(readwrite, inaccessiblemem: none) uwtable
define void @_Z18gmx_ana_pos_appendP13gmx_ana_pos_tS0_ii(ptr nocapture noundef %0, ptr nocapture noundef readonly %1, i32 noundef %2, i32 noundef %3) local_unnamed_addr #8 {
  %5 = getelementptr inbounds i8, ptr %1, i64 56
  %6 = load ptr, ptr %5, align 8
  %7 = sext i32 %2 to i64
  %8 = getelementptr i32, ptr %6, i64 %7
  %9 = load i32, ptr %8, align 4
  %10 = getelementptr i8, ptr %8, i64 4
  %11 = load i32, ptr %10, align 4
  %12 = icmp slt i32 %9, %11
  br i1 %12, label %.lr.ph, label %._crit_edge

.lr.ph:                                           ; preds = %4
  %13 = getelementptr inbounds i8, ptr %1, i64 72
  %14 = getelementptr inbounds i8, ptr %0, i64 72
  %15 = getelementptr inbounds i8, ptr %0, i64 64
  %16 = sext i32 %9 to i64
  br label %17

17:                                               ; preds = %.lr.ph, %17
  %indvars.iv = phi i64 [ %16, %.lr.ph ], [ %indvars.iv.next, %17 ]
  %18 = load ptr, ptr %13, align 8
  %19 = getelementptr inbounds i32, ptr %18, i64 %indvars.iv
  %20 = load i32, ptr %19, align 4
  %21 = load ptr, ptr %14, align 8
  %22 = load i32, ptr %15, align 8
  %23 = add nsw i32 %22, 1
  store i32 %23, ptr %15, align 8
  %24 = sext i32 %22 to i64
  %25 = getelementptr inbounds i32, ptr %21, i64 %24
  store i32 %20, ptr %25, align 4
  %indvars.iv.next = add nsw i64 %indvars.iv, 1
  %26 = load ptr, ptr %5, align 8
  %27 = getelementptr i32, ptr %26, i64 %7
  %28 = getelementptr i8, ptr %27, i64 4
  %29 = load i32, ptr %28, align 4
  %30 = sext i32 %29 to i64
  %31 = icmp slt i64 %indvars.iv.next, %30
  br i1 %31, label %17, label %._crit_edge, !llvm.loop !7

._crit_edge:                                      ; preds = %17, %4
  %32 = getelementptr inbounds i8, ptr %0, i64 48
  %33 = load i32, ptr %32, align 8
  %34 = getelementptr inbounds i8, ptr %0, i64 8
  %35 = load ptr, ptr %34, align 8
  %.not = icmp eq ptr %35, null
  br i1 %.not, label %54, label %36

36:                                               ; preds = %._crit_edge
  %37 = getelementptr inbounds i8, ptr %1, i64 8
  %38 = load ptr, ptr %37, align 8
  %.not53 = icmp eq ptr %38, null
  br i1 %.not53, label %49, label %39

39:                                               ; preds = %36
  %40 = getelementptr inbounds [3 x float], ptr %38, i64 %7
  %41 = sext i32 %33 to i64
  %42 = getelementptr inbounds [3 x float], ptr %35, i64 %41
  %43 = load float, ptr %40, align 4
  store float %43, ptr %42, align 4
  %44 = getelementptr inbounds i8, ptr %40, i64 4
  %45 = load float, ptr %44, align 4
  %46 = getelementptr inbounds i8, ptr %42, i64 4
  store float %45, ptr %46, align 4
  %47 = getelementptr inbounds i8, ptr %40, i64 8
  %48 = load float, ptr %47, align 4
  br label %.sink.split

49:                                               ; preds = %36
  %50 = sext i32 %33 to i64
  %51 = getelementptr inbounds [3 x float], ptr %35, i64 %50
  store <2 x float> zeroinitializer, ptr %51, align 4
  br label %.sink.split

.sink.split:                                      ; preds = %49, %39
  %52 = phi i64 [ %41, %39 ], [ %50, %49 ]
  %.sink = phi float [ %48, %39 ], [ 0.000000e+00, %49 ]
  %53 = getelementptr inbounds [3 x float], ptr %35, i64 %52, i64 2
  store float %.sink, ptr %53, align 4
  br label %54

54:                                               ; preds = %.sink.split, %._crit_edge
  %55 = getelementptr inbounds i8, ptr %0, i64 16
  %56 = load ptr, ptr %55, align 8
  %.not54 = icmp eq ptr %56, null
  br i1 %.not54, label %._crit_edge59, label %57

._crit_edge59:                                    ; preds = %54
  %.pre = sext i32 %33 to i64
  br label %75

57:                                               ; preds = %54
  %58 = getelementptr inbounds i8, ptr %1, i64 16
  %59 = load ptr, ptr %58, align 8
  %.not55 = icmp eq ptr %59, null
  br i1 %.not55, label %71, label %60

60:                                               ; preds = %57
  %61 = getelementptr inbounds [3 x float], ptr %59, i64 %7
  %62 = sext i32 %33 to i64
  %63 = getelementptr inbounds [3 x float], ptr %56, i64 %62
  %64 = load float, ptr %61, align 4
  store float %64, ptr %63, align 4
  %65 = getelementptr inbounds i8, ptr %61, i64 4
  %66 = load float, ptr %65, align 4
  %67 = getelementptr inbounds i8, ptr %63, i64 4
  store float %66, ptr %67, align 4
  %68 = getelementptr inbounds i8, ptr %61, i64 8
  %69 = load float, ptr %68, align 4
  %70 = getelementptr inbounds i8, ptr %63, i64 8
  store float %69, ptr %70, align 4
  br label %75

71:                                               ; preds = %57
  %72 = sext i32 %33 to i64
  %73 = getelementptr inbounds [3 x float], ptr %56, i64 %72
  store <2 x float> zeroinitializer, ptr %73, align 4
  %74 = getelementptr inbounds i8, ptr %73, i64 8
  store float 0.000000e+00, ptr %74, align 4
  br label %75

75:                                               ; preds = %._crit_edge59, %60, %71
  %.pre-phi = phi i64 [ %.pre, %._crit_edge59 ], [ %62, %60 ], [ %72, %71 ]
  %76 = load ptr, ptr %1, align 8
  %77 = getelementptr inbounds [3 x float], ptr %76, i64 %7
  %78 = load ptr, ptr %0, align 8
  %79 = getelementptr inbounds [3 x float], ptr %78, i64 %.pre-phi
  %80 = load float, ptr %77, align 4
  store float %80, ptr %79, align 4
  %81 = getelementptr inbounds i8, ptr %77, i64 4
  %82 = load float, ptr %81, align 4
  %83 = getelementptr inbounds i8, ptr %79, i64 4
  store float %82, ptr %83, align 4
  %84 = getelementptr inbounds i8, ptr %77, i64 8
  %85 = load float, ptr %84, align 4
  %86 = getelementptr inbounds i8, ptr %79, i64 8
  store float %85, ptr %86, align 4
  %87 = icmp slt i32 %3, 0
  br i1 %87, label %88, label %93

88:                                               ; preds = %75
  %89 = getelementptr inbounds i8, ptr %0, i64 32
  %90 = load ptr, ptr %89, align 8
  %91 = getelementptr inbounds i32, ptr %90, i64 %.pre-phi
  store i32 -1, ptr %91, align 4
  %92 = getelementptr inbounds i8, ptr %0, i64 136
  store i8 0, ptr %92, align 8
  br label %108

93:                                               ; preds = %75
  %.not56 = icmp eq i32 %33, %3
  br i1 %.not56, label %96, label %94

94:                                               ; preds = %93
  %95 = getelementptr inbounds i8, ptr %0, i64 136
  store i8 0, ptr %95, align 8
  br label %96

96:                                               ; preds = %94, %93
  %97 = getelementptr inbounds i8, ptr %0, i64 32
  %98 = load ptr, ptr %97, align 8
  %99 = getelementptr inbounds i32, ptr %98, i64 %.pre-phi
  store i32 %3, ptr %99, align 4
  %100 = getelementptr inbounds i8, ptr %0, i64 88
  %101 = load ptr, ptr %100, align 8
  %102 = zext nneg i32 %3 to i64
  %103 = getelementptr inbounds i32, ptr %101, i64 %102
  %104 = load i32, ptr %103, align 4
  %105 = getelementptr inbounds i8, ptr %0, i64 40
  %106 = load ptr, ptr %105, align 8
  %107 = getelementptr inbounds i32, ptr %106, i64 %.pre-phi
  store i32 %104, ptr %107, align 4
  br label %108

108:                                              ; preds = %96, %88
  %109 = getelementptr inbounds i8, ptr %0, i64 64
  %110 = load i32, ptr %109, align 8
  %111 = getelementptr inbounds i8, ptr %0, i64 56
  %112 = load ptr, ptr %111, align 8
  %113 = getelementptr i32, ptr %112, i64 %.pre-phi
  %114 = getelementptr i8, ptr %113, i64 4
  store i32 %110, ptr %114, align 4
  %115 = load i32, ptr %32, align 8
  %116 = add nsw i32 %115, 1
  store i32 %116, ptr %32, align 8
  ret void
}